target datalayout = "e-m:e-p270:32:32-p271:32:32-p272:64:64-i64:64-i128:128-f80:128-n8:16:32:64-S128"
target triple = "x86_64-pc-linux-gnu"

%class.ProtoTree = type { %class.QTreeView, ptr, %class.QMenu, %class.QMenu, %class.QList, i32, %class.QList.0, %class.QPoint, ptr, ptr }
%class.QTreeView = type { %class.QAbstractItemView }
%class.QAbstractItemView = type { %class.QAbstractScrollArea }
%class.QAbstractScrollArea = type { %class.QFrame }
%class.QFrame = type { %class.QWidget }
%class.QWidget = type { %class.QObject, %class.QPaintDevice.base, ptr }
%class.QObject = type { ptr, %class.QScopedPointer }
%class.QScopedPointer = type { ptr }
%class.QPaintDevice.base = type <{ ptr, i16 }>
%class.QMenu = type { %class.QWidget }
%class.QList = type { %struct.QArrayDataPointer }
%struct.QArrayDataPointer = type { ptr, ptr, i64 }
%class.QList.0 = type { %struct.QArrayDataPointer.3 }
%struct.QArrayDataPointer.3 = type { ptr, ptr, i64 }
%class.QPoint = type { i32, i32 }
%class.QEvent = type { ptr, i16, i8, i8, i8, i8, i16 }
%class.QTimerEvent = type <{ %class.QEvent, i32, [4 x i8] }>

; Function Attrs: mustprogress nounwind null_pointer_is_valid sspstrong uwtable
define linkonce_odr noundef i32 @_ZNK11QTimerEvent7timerIdEv(ptr noundef align 8 dereferenceable_or_null(20) %0) #4 comdat align 2 {
  %2 = alloca ptr, align 8
  store ptr %0, ptr %2, align 8
  %3 = load ptr, ptr %2, align 8
  %4 = getelementptr inbounds nuw %class.QTimerEvent, ptr %3, i32 0, i32 1
  %5 = load i32, ptr %4, align 8
  ret i32 %5
}

; Function Attrs: mustprogress null_pointer_is_valid sspstrong uwtable
define void @_ZN9ProtoTree10timerEventEP11QTimerEvent(ptr noundef align 8 dereferenceable_or_null(208) %0, ptr noundef %1) unnamed_addr #0 align 2 {
  %3 = alloca ptr, align 8
  %4 = alloca ptr, align 8
  store ptr %0, ptr %3, align 8
  store ptr %1, ptr %4, align 8
  %5 = load ptr, ptr %3, align 8
  %6 = load ptr, ptr %4, align 8
  %7 = call noundef i32 @_ZNK11QTimerEvent7timerIdEv(ptr noundef align 8 dereferenceable_or_null(20) %6)
  %8 = getelementptr inbounds nuw %class.ProtoTree, ptr %5, i32 0, i32 5
  %9 = load i32, ptr %8, align 8
  %10 = icmp eq i32 %7, %9
  br i1 %10, label %11, label %15

11:                                               ; preds = %2
  %12 = getelementptr inbounds nuw %class.ProtoTree, ptr %5, i32 0, i32 5
  %13 = load i32, ptr %12, align 8
  call void @_ZN7QObject9killTimerEi(ptr noundef align 8 dereferenceable_or_null(16) %5, i32 noundef %13)
  %14 = getelementptr inbounds nuw %class.ProtoTree, ptr %5, i32 0, i32 5
  store i32 0, ptr %14, align 8
  call void @_ZN9QTreeView22resizeColumnToContentsEi(ptr noundef align 8 dereferenceable_or_null(40) %5, i32 noundef 0)
  br label %17

15:                                               ; preds = %2
  %16 = load ptr, ptr %4, align 8
  call void @_ZN9QTreeView10timerEventEP11QTimerEvent(ptr noundef align 8 dereferenceable_or_null(40) %5, ptr noundef %16)
  br label %17

17:                                               ; preds = %15, %11
  ret void
}