; Function Attrs: mustprogress null_pointer_is_valid sspstrong uwtable
define void @_ZN9ProtoTree10timerEventEP11QTimerEvent(ptr noundef align 8 dereferenceable_or_null(208) %0, ptr noundef %1) unnamed_addr #0 align 2 {
  %3 = getelementptr inbounds nuw i8, ptr %1, i64 16
  %4 = load i32, ptr %3, align 8
  %5 = getelementptr inbounds nuw i8, ptr %0, i64 152
  %6 = load i32, ptr %5, align 8
  %7 = icmp eq i32 %4, %6
  br i1 %7, label %8, label %9

8:                                                ; preds = %2
  tail call void @_ZN7QObject9killTimerEi(ptr noundef align 8 dereferenceable_or_null(16) %0, i32 noundef %4)
  store i32 0, ptr %5, align 8
  tail call void @_ZN9QTreeView22resizeColumnToContentsEi(ptr noundef align 8 dereferenceable_or_null(40) %0, i32 noundef 0)
  br label %10

9:                                                ; preds = %2
  tail call void @_ZN9QTreeView10timerEventEP11QTimerEvent(ptr noundef align 8 dereferenceable_or_null(40) %0, ptr noundef %1)
  br label %10

10:                                               ; preds = %9, %8
  ret void
}